; Function Attrs: nofree nosync nounwind memory(read, inaccessiblemem: none) uwtable
define range(i32 0, 2) i32 @Wlc_ObjCheckIsEmpty_rec(ptr noundef readonly captures(none) %0, ptr noundef %1) local_unnamed_addr #4 {
  %.val20 = load i16, ptr %1, align 8
  %3 = and i16 %.val20, 63
  switch i16 %3, label %16 [
    i16 0, label %.critedge
    i16 1, label %4
  ]

4:                                                ; preds = %2
  %5 = getelementptr i8, ptr %0, i64 640
  %.val19 = load ptr, ptr %5, align 8, !tbaa !11
  %6 = ptrtoint ptr %1 to i64
  %7 = ptrtoint ptr %.val19 to i64
  %8 = sub i64 %6, %7
  %9 = sdiv exact i64 %8, 24
  %10 = getelementptr i8, ptr %0, i64 808
  %.val = load ptr, ptr %10, align 8, !tbaa !3
  %sext = shl i64 %9, 32
  %11 = ashr exact i64 %sext, 30
  %12 = getelementptr inbounds i8, ptr %.val, i64 %11
  %13 = load i32, ptr %12, align 4, !tbaa !10
  %14 = icmp eq i32 %13, 0
  %15 = zext i1 %14 to i32
  br label %.critedge

16:                                               ; preds = %2
  %17 = and i16 %.val20, 61
  %narrow.i.not = icmp eq i16 %17, 1
  br i1 %narrow.i.not, label %.critedge, label %.preheader

.preheader:                                       ; preds = %16
  %18 = getelementptr i8, ptr %1, i64 4
  %.val18 = load i32, ptr %18, align 4, !tbaa !20
  %19 = icmp sgt i32 %.val18, 0
  br i1 %19, label %.lr.ph, label %.critedge

.lr.ph:                                           ; preds = %.preheader
  %20 = icmp samesign ugt i32 %.val18, 2
  %21 = getelementptr inbounds nuw i8, ptr %1, i64 16
  %22 = getelementptr i8, ptr %0, i64 640
  %.val17 = load ptr, ptr %22, align 8, !tbaa !11
  br i1 %20, label %.lr.ph.split.us, label %.lr.ph.split

.lr.ph.split.us:                                  ; preds = %.lr.ph
  %23 = load ptr, ptr %21, align 8, !tbaa !22
  %wide.trip.count47 = zext nneg i32 %.val18 to i64
  br label %Wlc_ObjHasArray.exit.thread.i.i.us

Wlc_ObjHasArray.exit.thread.i.i.us:               ; preds = %29, %.lr.ph.split.us
  %indvars.iv44 = phi i64 [ %indvars.iv.next45, %29 ], [ 0, %.lr.ph.split.us ]
  %24 = getelementptr inbounds nuw i32, ptr %23, i64 %indvars.iv44
  %25 = load i32, ptr %24, align 4, !tbaa !10
  %26 = sext i32 %25 to i64
  %27 = getelementptr inbounds %struct.Wlc_Obj_t_, ptr %.val17, i64 %26
  %28 = tail call i32 @Wlc_ObjCheckIsEmpty_rec(ptr noundef %0, ptr noundef %27)
  %.not16.us = icmp eq i32 %28, 0
  br i1 %.not16.us, label %.critedge, label %29

29:                                               ; preds = %Wlc_ObjHasArray.exit.thread.i.i.us
  %indvars.iv.next45 = add nuw nsw i64 %indvars.iv44, 1
  %exitcond48.not = icmp eq i64 %indvars.iv.next45, %wide.trip.count47
  br i1 %exitcond48.not, label %.critedge, label %Wlc_ObjHasArray.exit.thread.i.i.us, !llvm.loop !48

.lr.ph.split:                                     ; preds = %.lr.ph
  switch i16 %3, label %Wlc_ObjFaninId.exit.preheader [
    i16 6, label %.lr.ph.split.split.us
    i16 22, label %.lr.ph.split.split.us
  ]

Wlc_ObjFaninId.exit.preheader:                    ; preds = %.lr.ph.split
  %wide.trip.count42 = zext nneg i32 %.val18 to i64
  br label %Wlc_ObjFaninId.exit

.lr.ph.split.split.us:                            ; preds = %.lr.ph.split, %.lr.ph.split
  %30 = load ptr, ptr %21, align 8, !tbaa !22
  %wide.trip.count = zext nneg i32 %.val18 to i64
  br label %Wlc_ObjHasArray.exit.thread.i.i.us27

Wlc_ObjHasArray.exit.thread.i.i.us27:             ; preds = %36, %.lr.ph.split.split.us
  %indvars.iv = phi i64 [ %indvars.iv.next, %36 ], [ 0, %.lr.ph.split.split.us ]
  %31 = getelementptr inbounds nuw i32, ptr %30, i64 %indvars.iv
  %32 = load i32, ptr %31, align 4, !tbaa !10
  %33 = sext i32 %32 to i64
  %34 = getelementptr inbounds %struct.Wlc_Obj_t_, ptr %.val17, i64 %33
  %35 = tail call i32 @Wlc_ObjCheckIsEmpty_rec(ptr noundef %0, ptr noundef %34)
  %.not16.us29 = icmp eq i32 %35, 0
  br i1 %.not16.us29, label %.critedge, label %36

36:                                               ; preds = %Wlc_ObjHasArray.exit.thread.i.i.us27
  %indvars.iv.next = add nuw nsw i64 %indvars.iv, 1
  %exitcond.not = icmp eq i64 %indvars.iv.next, %wide.trip.count
  br i1 %exitcond.not, label %.critedge, label %Wlc_ObjHasArray.exit.thread.i.i.us27, !llvm.loop !48

37:                                               ; preds = %Wlc_ObjFaninId.exit
  %indvars.iv.next40 = add nuw nsw i64 %indvars.iv39, 1
  %exitcond43.not = icmp eq i64 %indvars.iv.next40, %wide.trip.count42
  br i1 %exitcond43.not, label %.critedge, label %Wlc_ObjFaninId.exit, !llvm.loop !48

Wlc_ObjFaninId.exit:                              ; preds = %Wlc_ObjFaninId.exit.preheader, %37
  %indvars.iv39 = phi i64 [ 0, %Wlc_ObjFaninId.exit.preheader ], [ %indvars.iv.next40, %37 ]
  %38 = getelementptr inbounds nuw i32, ptr %21, i64 %indvars.iv39
  %39 = load i32, ptr %38, align 4, !tbaa !10
  %40 = sext i32 %39 to i64
  %41 = getelementptr inbounds %struct.Wlc_Obj_t_, ptr %.val17, i64 %40
  %42 = tail call i32 @Wlc_ObjCheckIsEmpty_rec(ptr noundef %0, ptr noundef %41)
  %.not16 = icmp eq i32 %42, 0
  br i1 %.not16, label %.critedge, label %37

.critedge:                                        ; preds = %Wlc_ObjHasArray.exit.thread.i.i.us27, %36, %Wlc_ObjFaninId.exit, %37, %Wlc_ObjHasArray.exit.thread.i.i.us, %29, %.preheader, %2, %16, %4
  %.0 = phi i32 [ %15, %4 ], [ 1, %2 ], [ 0, %16 ], [ 1, %.preheader ], [ 0, %Wlc_ObjHasArray.exit.thread.i.i.us ], [ 1, %29 ], [ 0, %Wlc_ObjFaninId.exit ], [ 1, %37 ], [ 0, %Wlc_ObjHasArray.exit.thread.i.i.us27 ], [ 1, %36 ]
  ret i32 %.0
}